target datalayout = "e-m:e-p270:32:32-p271:32:32-p272:64:64-i64:64-i128:128-f80:128-n8:16:32:64-S128"
target triple = "x86_64-pc-linux-gnu"

%struct.b2TreeNode = type { %struct.b2AABB, i64, %union.anon, i32, %union.anon.0, i16, i16 }
%struct.b2AABB = type { %struct.b2Vec2, %struct.b2Vec2 }
%struct.b2Vec2 = type { float, float }
%union.anon = type { i32 }
%union.anon.0 = type { i32 }
%struct.b2DynamicTree = type { ptr, i32, i32, i32, i32, i32, ptr, ptr, ptr, ptr, i32 }
%struct.b2TreeStats = type { i32, i32 }

; Function Attrs: nounwind uwtable
define internal zeroext i1 @b2IsLeaf(ptr noundef %0) #0 {
  %2 = alloca ptr, align 8
  store ptr %0, ptr %2, align 8, !tbaa !31
  %3 = load ptr, ptr %2, align 8, !tbaa !31
  %4 = getelementptr inbounds nuw %struct.b2TreeNode, ptr %3, i32 0, i32 6
  %5 = load i16, ptr %4, align 2, !tbaa !41
  %6 = zext i16 %5 to i32
  %7 = and i32 %6, 4
  %8 = icmp ne i32 %7, 0
  ret i1 %8
}

; Function Attrs: inlinehint nounwind uwtable
define internal zeroext i1 @b2AABB_Overlaps(<2 x float> %0, <2 x float> %1, <2 x float> %2, <2 x float> %3) #6 {
  %5 = alloca %struct.b2AABB, align 4
  %6 = alloca %struct.b2AABB, align 4
  %7 = getelementptr inbounds nuw { <2 x float>, <2 x float> }, ptr %5, i32 0, i32 0
  store <2 x float> %0, ptr %7, align 4
  %8 = getelementptr inbounds nuw { <2 x float>, <2 x float> }, ptr %5, i32 0, i32 1
  store <2 x float> %1, ptr %8, align 4
  %9 = getelementptr inbounds nuw { <2 x float>, <2 x float> }, ptr %6, i32 0, i32 0
  store <2 x float> %2, ptr %9, align 4
  %10 = getelementptr inbounds nuw { <2 x float>, <2 x float> }, ptr %6, i32 0, i32 1
  store <2 x float> %3, ptr %10, align 4
  %11 = getelementptr inbounds nuw %struct.b2AABB, ptr %6, i32 0, i32 0
  %12 = getelementptr inbounds nuw %struct.b2Vec2, ptr %11, i32 0, i32 0
  %13 = load float, ptr %12, align 4, !tbaa !55
  %14 = getelementptr inbounds nuw %struct.b2AABB, ptr %5, i32 0, i32 1
  %15 = getelementptr inbounds nuw %struct.b2Vec2, ptr %14, i32 0, i32 0
  %16 = load float, ptr %15, align 4, !tbaa !57
  %17 = fcmp ogt float %13, %16
  br i1 %17, label %42, label %18

18:                                               ; preds = %4
  %19 = getelementptr inbounds nuw %struct.b2AABB, ptr %6, i32 0, i32 0
  %20 = getelementptr inbounds nuw %struct.b2Vec2, ptr %19, i32 0, i32 1
  %21 = load float, ptr %20, align 4, !tbaa !56
  %22 = getelementptr inbounds nuw %struct.b2AABB, ptr %5, i32 0, i32 1
  %23 = getelementptr inbounds nuw %struct.b2Vec2, ptr %22, i32 0, i32 1
  %24 = load float, ptr %23, align 4, !tbaa !58
  %25 = fcmp ogt float %21, %24
  br i1 %25, label %42, label %26

26:                                               ; preds = %18
  %27 = getelementptr inbounds nuw %struct.b2AABB, ptr %5, i32 0, i32 0
  %28 = getelementptr inbounds nuw %struct.b2Vec2, ptr %27, i32 0, i32 0
  %29 = load float, ptr %28, align 4, !tbaa !55
  %30 = getelementptr inbounds nuw %struct.b2AABB, ptr %6, i32 0, i32 1
  %31 = getelementptr inbounds nuw %struct.b2Vec2, ptr %30, i32 0, i32 0
  %32 = load float, ptr %31, align 4, !tbaa !57
  %33 = fcmp ogt float %29, %32
  br i1 %33, label %42, label %34

34:                                               ; preds = %26
  %35 = getelementptr inbounds nuw %struct.b2AABB, ptr %5, i32 0, i32 0
  %36 = getelementptr inbounds nuw %struct.b2Vec2, ptr %35, i32 0, i32 1
  %37 = load float, ptr %36, align 4, !tbaa !56
  %38 = getelementptr inbounds nuw %struct.b2AABB, ptr %6, i32 0, i32 1
  %39 = getelementptr inbounds nuw %struct.b2Vec2, ptr %38, i32 0, i32 1
  %40 = load float, ptr %39, align 4, !tbaa !58
  %41 = fcmp ogt float %37, %40
  br label %42

42:                                               ; preds = %34, %26, %18, %4
  %43 = phi i1 [ true, %26 ], [ true, %18 ], [ true, %4 ], [ %41, %34 ]
  %44 = xor i1 %43, true
  ret i1 %44
}

; Function Attrs: nounwind uwtable
define i64 @b2DynamicTree_Query(ptr noundef %0, <2 x float> %1, <2 x float> %2, i64 noundef %3, ptr noundef %4, ptr noundef %5) #4 {
  %7 = alloca %struct.b2TreeStats, align 4
  %8 = alloca %struct.b2AABB, align 4
  %9 = alloca ptr, align 8
  %10 = alloca i64, align 8
  %11 = alloca ptr, align 8
  %12 = alloca ptr, align 8
  %13 = alloca [1024 x i32], align 16
  %14 = alloca i32, align 4
  %15 = alloca i32, align 4
  %16 = alloca i32, align 4
  %17 = alloca ptr, align 8
  %18 = alloca i8, align 1
  %19 = getelementptr inbounds nuw { <2 x float>, <2 x float> }, ptr %8, i32 0, i32 0
  store <2 x float> %1, ptr %19, align 4
  %20 = getelementptr inbounds nuw { <2 x float>, <2 x float> }, ptr %8, i32 0, i32 1
  store <2 x float> %2, ptr %20, align 4
  store ptr %0, ptr %9, align 8, !tbaa !27
  store i64 %3, ptr %10, align 8, !tbaa !29
  store ptr %4, ptr %11, align 8, !tbaa !60
  store ptr %5, ptr %12, align 8, !tbaa !60
  call void @llvm.memset.p0.i64(ptr align 4 %7, i8 0, i64 8, i1 false)
  %21 = load ptr, ptr %9, align 8, !tbaa !27
  %22 = getelementptr inbounds nuw %struct.b2DynamicTree, ptr %21, i32 0, i32 2
  %23 = load i32, ptr %22, align 4, !tbaa !14
  %24 = icmp eq i32 %23, 0
  br i1 %24, label %25, label %26

25:                                               ; preds = %6
  br label %126

26:                                               ; preds = %6
  call void @llvm.lifetime.start.p0(i64 4096, ptr %13) #9
  call void @llvm.lifetime.start.p0(i64 4, ptr %14) #9
  store i32 0, ptr %14, align 4, !tbaa !16
  %27 = load ptr, ptr %9, align 8, !tbaa !27
  %28 = getelementptr inbounds nuw %struct.b2DynamicTree, ptr %27, i32 0, i32 1
  %29 = load i32, ptr %28, align 8, !tbaa !3
  %30 = load i32, ptr %14, align 4, !tbaa !16
  %31 = add nsw i32 %30, 1
  store i32 %31, ptr %14, align 4, !tbaa !16
  %32 = sext i32 %30 to i64
  %33 = getelementptr inbounds [1024 x i32], ptr %13, i64 0, i64 %32
  store i32 %29, ptr %33, align 4, !tbaa !16
  br label %34

34:                                               ; preds = %123, %121, %26
  %35 = load i32, ptr %14, align 4, !tbaa !16
  %36 = icmp sgt i32 %35, 0
  br i1 %36, label %37, label %124

37:                                               ; preds = %34
  call void @llvm.lifetime.start.p0(i64 4, ptr %15) #9
  %38 = load i32, ptr %14, align 4, !tbaa !16
  %39 = add nsw i32 %38, -1
  store i32 %39, ptr %14, align 4, !tbaa !16
  %40 = sext i32 %39 to i64
  %41 = getelementptr inbounds [1024 x i32], ptr %13, i64 0, i64 %40
  %42 = load i32, ptr %41, align 4, !tbaa !16
  store i32 %42, ptr %15, align 4, !tbaa !16
  %43 = load i32, ptr %15, align 4, !tbaa !16
  %44 = icmp eq i32 %43, -1
  br i1 %44, label %45, label %46

45:                                               ; preds = %37
  store i32 2, ptr %16, align 4
  br label %121, !llvm.loop !61

46:                                               ; preds = %37
  call void @llvm.lifetime.start.p0(i64 8, ptr %17) #9
  %47 = load ptr, ptr %9, align 8, !tbaa !27
  %48 = getelementptr inbounds nuw %struct.b2DynamicTree, ptr %47, i32 0, i32 0
  %49 = load ptr, ptr %48, align 8, !tbaa !15
  %50 = load i32, ptr %15, align 4, !tbaa !16
  %51 = sext i32 %50 to i64
  %52 = getelementptr inbounds %struct.b2TreeNode, ptr %49, i64 %51
  store ptr %52, ptr %17, align 8, !tbaa !31
  %53 = getelementptr inbounds nuw %struct.b2TreeStats, ptr %7, i32 0, i32 0
  %54 = load i32, ptr %53, align 4, !tbaa !62
  %55 = add nsw i32 %54, 1
  store i32 %55, ptr %53, align 4, !tbaa !62
  %56 = load ptr, ptr %17, align 8, !tbaa !31
  %57 = getelementptr inbounds nuw %struct.b2TreeNode, ptr %56, i32 0, i32 0
  %58 = getelementptr inbounds nuw { <2 x float>, <2 x float> }, ptr %57, i32 0, i32 0
  %59 = load <2 x float>, ptr %58, align 8
  %60 = getelementptr inbounds nuw { <2 x float>, <2 x float> }, ptr %57, i32 0, i32 1
  %61 = load <2 x float>, ptr %60, align 8
  %62 = getelementptr inbounds nuw { <2 x float>, <2 x float> }, ptr %8, i32 0, i32 0
  %63 = load <2 x float>, ptr %62, align 4
  %64 = getelementptr inbounds nuw { <2 x float>, <2 x float> }, ptr %8, i32 0, i32 1
  %65 = load <2 x float>, ptr %64, align 4
  %66 = call zeroext i1 @b2AABB_Overlaps(<2 x float> %59, <2 x float> %61, <2 x float> %63, <2 x float> %65)
  br i1 %66, label %67, label %119

67:                                               ; preds = %46
  %68 = load ptr, ptr %17, align 8, !tbaa !31
  %69 = getelementptr inbounds nuw %struct.b2TreeNode, ptr %68, i32 0, i32 1
  %70 = load i64, ptr %69, align 8, !tbaa !35
  %71 = load i64, ptr %10, align 8, !tbaa !29
  %72 = and i64 %70, %71
  %73 = icmp ne i64 %72, 0
  br i1 %73, label %74, label %119

74:                                               ; preds = %67
  %75 = load ptr, ptr %17, align 8, !tbaa !31
  %76 = call zeroext i1 @b2IsLeaf(ptr noundef %75)
  br i1 %76, label %77, label %98

77:                                               ; preds = %74
  call void @llvm.lifetime.start.p0(i64 1, ptr %18) #9
  %78 = load ptr, ptr %11, align 8, !tbaa !60
  %79 = load i32, ptr %15, align 4, !tbaa !16
  %80 = load ptr, ptr %17, align 8, !tbaa !31
  %81 = getelementptr inbounds nuw %struct.b2TreeNode, ptr %80, i32 0, i32 4
  %82 = load i32, ptr %81, align 8, !tbaa !17
  %83 = load ptr, ptr %12, align 8, !tbaa !60
  %84 = call zeroext i1 %78(i32 noundef %79, i32 noundef %82, ptr noundef %83)
  %85 = zext i1 %84 to i8
  store i8 %85, ptr %18, align 1, !tbaa !42
  %86 = getelementptr inbounds nuw %struct.b2TreeStats, ptr %7, i32 0, i32 1
  %87 = load i32, ptr %86, align 4, !tbaa !64
  %88 = add nsw i32 %87, 1
  store i32 %88, ptr %86, align 4, !tbaa !64
  %89 = load i8, ptr %18, align 1, !tbaa !42, !range !44, !noundef !45
  %90 = trunc i8 %89 to i1
  %91 = zext i1 %90 to i32
  %92 = icmp eq i32 %91, 0
  br i1 %92, label %93, label %94

93:                                               ; preds = %77
  store i32 1, ptr %16, align 4
  br label %95

94:                                               ; preds = %77
  store i32 0, ptr %16, align 4
  br label %95

95:                                               ; preds = %94, %93
  call void @llvm.lifetime.end.p0(i64 1, ptr %18) #9
  %96 = load i32, ptr %16, align 4
  switch i32 %96, label %120 [
    i32 0, label %97
  ]

97:                                               ; preds = %95
  br label %118

98:                                               ; preds = %74
  %99 = load i32, ptr %14, align 4, !tbaa !16
  %100 = icmp slt i32 %99, 1023
  br i1 %100, label %101, label %116

101:                                              ; preds = %98
  %102 = load ptr, ptr %17, align 8, !tbaa !31
  %103 = getelementptr inbounds nuw %struct.b2TreeNode, ptr %102, i32 0, i32 3
  %104 = load i32, ptr %103, align 4, !tbaa !49
  %105 = load i32, ptr %14, align 4, !tbaa !16
  %106 = add nsw i32 %105, 1
  store i32 %106, ptr %14, align 4, !tbaa !16
  %107 = sext i32 %105 to i64
  %108 = getelementptr inbounds [1024 x i32], ptr %13, i64 0, i64 %107
  store i32 %104, ptr %108, align 4, !tbaa !16
  %109 = load ptr, ptr %17, align 8, !tbaa !31
  %110 = getelementptr inbounds nuw %struct.b2TreeNode, ptr %109, i32 0, i32 4
  %111 = load i32, ptr %110, align 8, !tbaa !17
  %112 = load i32, ptr %14, align 4, !tbaa !16
  %113 = add nsw i32 %112, 1
  store i32 %113, ptr %14, align 4, !tbaa !16
  %114 = sext i32 %112 to i64
  %115 = getelementptr inbounds [1024 x i32], ptr %13, i64 0, i64 %114
  store i32 %111, ptr %115, align 4, !tbaa !16
  br label %117

116:                                              ; preds = %98
  br label %117

117:                                              ; preds = %116, %101
  br label %118

118:                                              ; preds = %117, %97
  br label %119

119:                                              ; preds = %118, %67, %46
  store i32 0, ptr %16, align 4
  br label %120

120:                                              ; preds = %119, %95
  call void @llvm.lifetime.end.p0(i64 8, ptr %17) #9
  br label %121

121:                                              ; preds = %120, %45
  call void @llvm.lifetime.end.p0(i64 4, ptr %15) #9
  %122 = load i32, ptr %16, align 4
  switch i32 %122, label %125 [
    i32 0, label %123
    i32 2, label %34
  ]

123:                                              ; preds = %121
  br label %34, !llvm.loop !61

124:                                              ; preds = %34
  store i32 1, ptr %16, align 4
  br label %125

125:                                              ; preds = %124, %121
  call void @llvm.lifetime.end.p0(i64 4, ptr %14) #9
  call void @llvm.lifetime.end.p0(i64 4096, ptr %13) #9
  br label %126

126:                                              ; preds = %125, %25
  %127 = load i64, ptr %7, align 4
  ret i64 %127
}