; Function Attrs: nounwind uwtable
define i64 @b2DynamicTree_Query(ptr noundef readonly captures(none) %0, <2 x float> %1, <2 x float> %2, i64 noundef %3, ptr noundef readonly captures(none) %4, ptr noundef %5) local_unnamed_addr #4 {
  %7 = alloca [1024 x i32], align 16
  %8 = getelementptr inbounds nuw i8, ptr %0, i64 12
  %9 = load i32, ptr %8, align 4, !tbaa !14
  %10 = icmp eq i32 %9, 0
  br i1 %10, label %61, label %11

11:                                               ; preds = %6
  call void @llvm.lifetime.start.p0(i64 4096, ptr nonnull %7) #13
  %12 = getelementptr inbounds nuw i8, ptr %0, i64 8
  %13 = load i32, ptr %12, align 8, !tbaa !3
  store i32 %13, ptr %7, align 16, !tbaa !39
  %.sroa.0.0.vec.extract.i = extractelement <2 x float> %1, i64 0
  %.sroa.3.8.vec.extract.i = extractelement <2 x float> %2, i64 0
  br label %14

14:                                               ; preds = %11, %b2AABB_Overlaps.exit.thread
  %.sroa.023.144 = phi i32 [ 0, %11 ], [ %.sroa.023.2, %b2AABB_Overlaps.exit.thread ]
  %.sroa.4.143 = phi i32 [ 0, %11 ], [ %.sroa.4.2, %b2AABB_Overlaps.exit.thread ]
  %.02742 = phi i32 [ 1, %11 ], [ %.128, %b2AABB_Overlaps.exit.thread ]
  %15 = add nsw i32 %.02742, -1
  %16 = zext nneg i32 %15 to i64
  %17 = getelementptr inbounds nuw [1024 x i32], ptr %7, i64 0, i64 %16
  %18 = load i32, ptr %17, align 4, !tbaa !39
  %19 = icmp eq i32 %18, -1
  br i1 %19, label %b2AABB_Overlaps.exit.thread, label %20, !llvm.loop !50

20:                                               ; preds = %14
  %21 = load ptr, ptr %0, align 8, !tbaa !15
  %22 = sext i32 %18 to i64
  %23 = getelementptr inbounds %struct.b2TreeNode, ptr %21, i64 %22
  %24 = add nsw i32 %.sroa.023.144, 1
  %25 = load <2 x float>, ptr %23, align 8
  %26 = getelementptr inbounds nuw i8, ptr %23, i64 8
  %27 = load <2 x float>, ptr %26, align 8
  %.sroa.32.8.vec.extract.i = extractelement <2 x float> %27, i64 0
  %28 = fcmp ule float %.sroa.0.0.vec.extract.i, %.sroa.32.8.vec.extract.i
  %29 = fcmp ule <2 x float> %1, %27
  %30 = extractelement <2 x i1> %29, i64 1
  %or.cond.i.not40 = select i1 %28, i1 %30, i1 false
  %.sroa.01.0.vec.extract.i = extractelement <2 x float> %25, i64 0
  %31 = fcmp ule float %.sroa.01.0.vec.extract.i, %.sroa.3.8.vec.extract.i
  %or.cond3.i.not37 = select i1 %or.cond.i.not40, i1 %31, i1 false
  %32 = fcmp ule <2 x float> %25, %2
  %33 = extractelement <2 x i1> %32, i64 1
  %or.cond = select i1 %or.cond3.i.not37, i1 %33, i1 false
  br i1 %or.cond, label %34, label %b2AABB_Overlaps.exit.thread

34:                                               ; preds = %20
  %35 = getelementptr inbounds nuw i8, ptr %23, i64 16
  %36 = load i64, ptr %35, align 8, !tbaa !26
  %37 = and i64 %36, %3
  %.not = icmp eq i64 %37, 0
  br i1 %.not, label %b2AABB_Overlaps.exit.thread, label %38

38:                                               ; preds = %34
  %39 = getelementptr i8, ptr %23, i64 38
  %.val = load i16, ptr %39, align 2, !tbaa !34
  %40 = and i16 %.val, 4
  %.not41 = icmp eq i16 %40, 0
  br i1 %.not41, label %46, label %41

41:                                               ; preds = %38
  %42 = getelementptr inbounds nuw i8, ptr %23, i64 32
  %43 = load i32, ptr %42, align 8, !tbaa !16
  %44 = tail call zeroext i1 %4(i32 noundef %18, i32 noundef %43, ptr noundef %5) #13
  %45 = add nsw i32 %.sroa.4.143, 1
  br i1 %44, label %b2AABB_Overlaps.exit.thread, label %.thread

46:                                               ; preds = %38
  %47 = icmp samesign ult i32 %.02742, 1024
  br i1 %47, label %48, label %b2AABB_Overlaps.exit.thread

48:                                               ; preds = %46
  %49 = getelementptr inbounds nuw i8, ptr %23, i64 28
  %50 = load i32, ptr %49, align 4, !tbaa !41
  store i32 %50, ptr %17, align 4, !tbaa !39
  %51 = getelementptr inbounds nuw i8, ptr %23, i64 32
  %52 = load i32, ptr %51, align 8, !tbaa !16
  %53 = add nuw nsw i32 %.02742, 1
  %54 = zext nneg i32 %.02742 to i64
  %55 = getelementptr inbounds nuw [1024 x i32], ptr %7, i64 0, i64 %54
  store i32 %52, ptr %55, align 4, !tbaa !39
  br label %b2AABB_Overlaps.exit.thread

b2AABB_Overlaps.exit.thread:                      ; preds = %41, %20, %46, %48, %34, %14
  %.128 = phi i32 [ %15, %14 ], [ %53, %48 ], [ %15, %46 ], [ %15, %34 ], [ %15, %20 ], [ %15, %41 ]
  %.sroa.4.2 = phi i32 [ %.sroa.4.143, %14 ], [ %.sroa.4.143, %48 ], [ %.sroa.4.143, %46 ], [ %.sroa.4.143, %34 ], [ %.sroa.4.143, %20 ], [ %45, %41 ]
  %.sroa.023.2 = phi i32 [ %.sroa.023.144, %14 ], [ %24, %48 ], [ %24, %46 ], [ %24, %34 ], [ %24, %20 ], [ %24, %41 ]
  %56 = icmp sgt i32 %.128, 0
  br i1 %56, label %14, label %.thread

.thread:                                          ; preds = %41, %b2AABB_Overlaps.exit.thread
  %.sroa.4.5 = phi i32 [ %.sroa.4.2, %b2AABB_Overlaps.exit.thread ], [ %45, %41 ]
  %.sroa.023.3 = phi i32 [ %.sroa.023.2, %b2AABB_Overlaps.exit.thread ], [ %24, %41 ]
  call void @llvm.lifetime.end.p0(i64 4096, ptr nonnull %7) #13
  %57 = zext i32 %.sroa.4.5 to i64
  %58 = shl nuw i64 %57, 32
  %59 = zext i32 %.sroa.023.3 to i64
  %60 = or disjoint i64 %58, %59
  br label %61

61:                                               ; preds = %6, %.thread
  %.sroa.023.0.insert.insert = phi i64 [ 0, %6 ], [ %60, %.thread ]
  ret i64 %.sroa.023.0.insert.insert
}